; Function Attrs: mustprogress uwtable
define noundef zeroext i1 @_ZN6google8protobuf24MergedDescriptorDatabase14FindFileByNameERKNSt7__cxx1112basic_stringIcSt11char_traitsIcESaIcEEEPNS0_19FileDescriptorProtoE(ptr nocapture noundef nonnull readonly align 8 dereferenceable(32) %this, ptr noundef nonnull align 8 dereferenceable(32) %filename, ptr noundef %output) unnamed_addr #6 align 2 {
entry:
  %sources_ = getelementptr inbounds i8, ptr %this, i64 8
  %0 = load ptr, ptr %sources_, align 8
  %_M_finish.i = getelementptr inbounds i8, ptr %this, i64 16
  %1 = load ptr, ptr %_M_finish.i, align 8
  %cmp.i4.not = icmp eq ptr %0, %1
  br i1 %cmp.i4.not, label %return, label %for.body

for.body:                                         ; preds = %entry, %for.body
  %__begin2.sroa.0.05 = phi ptr [ %incdec.ptr.i, %for.body ], [ %0, %entry ]
  %2 = load ptr, ptr %__begin2.sroa.0.05, align 8
  %vtable = load ptr, ptr %2, align 8
  %vfn = getelementptr inbounds i8, ptr %vtable, i64 16
  %3 = load ptr, ptr %vfn, align 8
  %call6 = tail call noundef zeroext i1 %3(ptr noundef nonnull align 8 dereferenceable(8) %2, ptr noundef nonnull align 8 dereferenceable(32) %filename, ptr noundef %output)
  %incdec.ptr.i = getelementptr inbounds i8, ptr %__begin2.sroa.0.05, i64 8
  %cmp.i.not = icmp eq ptr %incdec.ptr.i, %1
  %or.cond = select i1 %call6, i1 true, i1 %cmp.i.not
  br i1 %or.cond, label %return, label %for.body

return:                                           ; preds = %for.body, %entry
  %cmp.i.lcssa = phi i1 [ false, %entry ], [ %call6, %for.body ]
  ret i1 %cmp.i.lcssa
}